target datalayout = "e-m:e-p270:32:32-p271:32:32-p272:64:64-i64:64-i128:128-f80:128-n8:16:32:64-S128"
target triple = "x86_64-pc-linux-gnu"

%union.pthread_mutex_t = type { %struct.__pthread_mutex_s }
%struct.__pthread_mutex_s = type { i32, i32, i32, i32, i32, i16, i16, %struct.__pthread_internal_list }
%struct.__pthread_internal_list = type { ptr, ptr }
%union.pthread_cond_t = type { %struct.__pthread_cond_s }
%struct.__pthread_cond_s = type { %union.__atomic_wide_counter, %union.__atomic_wide_counter, [2 x i32], [2 x i32], i32, i32, [2 x i32] }
%union.__atomic_wide_counter = type { i64 }
%struct.blas_queue = type { ptr, i64, i64, ptr, ptr, ptr, ptr, ptr, ptr, %union.pthread_mutex_t, %union.pthread_cond_t, i32, i32 }

@blas_server_avail = global i32 0, align 128
@blas_cpu_number = external global i32, align 4

; Function Attrs: nounwind uwtable
define i32 @gotoblas_pthread(i32 noundef %0, ptr noundef %1, ptr noundef %2, i32 noundef %3) #0 {
  %5 = alloca i32, align 4
  %6 = alloca i32, align 4
  %7 = alloca ptr, align 8
  %8 = alloca ptr, align 8
  %9 = alloca i32, align 4
  %10 = alloca [16 x %struct.blas_queue], align 16
  %11 = alloca i32, align 4
  %12 = alloca i32, align 4
  store i32 %0, ptr %6, align 4, !tbaa !3
  store ptr %1, ptr %7, align 8, !tbaa !9
  store ptr %2, ptr %8, align 8, !tbaa !9
  store i32 %3, ptr %9, align 4, !tbaa !3
  call void @llvm.lifetime.start.p0(i64 2688, ptr %10) #8
  call void @llvm.lifetime.start.p0(i64 4, ptr %11) #8
  %13 = load i32, ptr %6, align 4, !tbaa !3
  %14 = icmp sle i32 %13, 0
  br i1 %14, label %15, label %16

15:                                               ; preds = %4
  store i32 0, ptr %5, align 4
  store i32 1, ptr %12, align 4
  br label %89

16:                                               ; preds = %4
  %17 = load i32, ptr @blas_cpu_number, align 4, !tbaa !3
  %18 = icmp eq i32 %17, 0
  br i1 %18, label %19, label %21

19:                                               ; preds = %16
  %20 = call i32 @blas_get_cpu_number()
  br label %21

21:                                               ; preds = %19, %16
  %22 = load i32, ptr @blas_server_avail, align 128, !tbaa !3
  %23 = icmp eq i32 %22, 0
  br i1 %23, label %24, label %26

24:                                               ; preds = %21
  %25 = call i32 @blas_thread_init()
  br label %26

26:                                               ; preds = %24, %21
  store i32 0, ptr %11, align 4, !tbaa !3
  br label %27

27:                                               ; preds = %76, %26
  %28 = load i32, ptr %11, align 4, !tbaa !3
  %29 = load i32, ptr %6, align 4, !tbaa !3
  %30 = icmp slt i32 %28, %29
  br i1 %30, label %31, label %79

31:                                               ; preds = %27
  %32 = load i32, ptr %11, align 4, !tbaa !3
  %33 = sext i32 %32 to i64
  %34 = getelementptr inbounds [16 x %struct.blas_queue], ptr %10, i64 0, i64 %33
  %35 = getelementptr inbounds nuw %struct.blas_queue, ptr %34, i32 0, i32 11
  store i32 16384, ptr %35, align 8, !tbaa !49
  %36 = load ptr, ptr %7, align 8, !tbaa !9
  %37 = load i32, ptr %11, align 4, !tbaa !3
  %38 = sext i32 %37 to i64
  %39 = getelementptr inbounds [16 x %struct.blas_queue], ptr %10, i64 0, i64 %38
  %40 = getelementptr inbounds nuw %struct.blas_queue, ptr %39, i32 0, i32 0
  store ptr %36, ptr %40, align 8, !tbaa !48
  %41 = load ptr, ptr %8, align 8, !tbaa !9
  %42 = load i32, ptr %11, align 4, !tbaa !3
  %43 = sext i32 %42 to i64
  %44 = getelementptr inbounds [16 x %struct.blas_queue], ptr %10, i64 0, i64 %43
  %45 = getelementptr inbounds nuw %struct.blas_queue, ptr %44, i32 0, i32 3
  store ptr %41, ptr %45, align 8, !tbaa !50
  %46 = load i32, ptr %11, align 4, !tbaa !3
  %47 = sext i32 %46 to i64
  %48 = getelementptr inbounds [16 x %struct.blas_queue], ptr %10, i64 0, i64 %47
  %49 = getelementptr inbounds nuw %struct.blas_queue, ptr %48, i32 0, i32 4
  store ptr null, ptr %49, align 8, !tbaa !52
  %50 = load i32, ptr %11, align 4, !tbaa !3
  %51 = sext i32 %50 to i64
  %52 = getelementptr inbounds [16 x %struct.blas_queue], ptr %10, i64 0, i64 %51
  %53 = getelementptr inbounds nuw %struct.blas_queue, ptr %52, i32 0, i32 5
  store ptr null, ptr %53, align 8, !tbaa !53
  %54 = load ptr, ptr %8, align 8, !tbaa !9
  %55 = load i32, ptr %11, align 4, !tbaa !3
  %56 = sext i32 %55 to i64
  %57 = getelementptr inbounds [16 x %struct.blas_queue], ptr %10, i64 0, i64 %56
  %58 = getelementptr inbounds nuw %struct.blas_queue, ptr %57, i32 0, i32 6
  store ptr %54, ptr %58, align 8, !tbaa !54
  %59 = load ptr, ptr %8, align 8, !tbaa !9
  %60 = load i32, ptr %11, align 4, !tbaa !3
  %61 = sext i32 %60 to i64
  %62 = getelementptr inbounds [16 x %struct.blas_queue], ptr %10, i64 0, i64 %61
  %63 = getelementptr inbounds nuw %struct.blas_queue, ptr %62, i32 0, i32 7
  store ptr %59, ptr %63, align 8, !tbaa !51
  %64 = load i32, ptr %11, align 4, !tbaa !3
  %65 = add nsw i32 %64, 1
  %66 = sext i32 %65 to i64
  %67 = getelementptr inbounds [16 x %struct.blas_queue], ptr %10, i64 0, i64 %66
  %68 = load i32, ptr %11, align 4, !tbaa !3
  %69 = sext i32 %68 to i64
  %70 = getelementptr inbounds [16 x %struct.blas_queue], ptr %10, i64 0, i64 %69
  %71 = getelementptr inbounds nuw %struct.blas_queue, ptr %70, i32 0, i32 8
  store ptr %67, ptr %71, align 8, !tbaa !33
  %72 = load i32, ptr %9, align 4, !tbaa !3
  %73 = load ptr, ptr %8, align 8, !tbaa !9
  %74 = sext i32 %72 to i64
  %75 = getelementptr inbounds i8, ptr %73, i64 %74
  store ptr %75, ptr %8, align 8, !tbaa !9
  br label %76

76:                                               ; preds = %31
  %77 = load i32, ptr %11, align 4, !tbaa !3
  %78 = add nsw i32 %77, 1
  store i32 %78, ptr %11, align 4, !tbaa !3
  br label %27, !llvm.loop !73

79:                                               ; preds = %27
  %80 = load i32, ptr %6, align 4, !tbaa !3
  %81 = sub nsw i32 %80, 1
  %82 = sext i32 %81 to i64
  %83 = getelementptr inbounds [16 x %struct.blas_queue], ptr %10, i64 0, i64 %82
  %84 = getelementptr inbounds nuw %struct.blas_queue, ptr %83, i32 0, i32 8
  store ptr null, ptr %84, align 8, !tbaa !33
  %85 = load i32, ptr %6, align 4, !tbaa !3
  %86 = sext i32 %85 to i64
  %87 = getelementptr inbounds [16 x %struct.blas_queue], ptr %10, i64 0, i64 0
  %88 = call i32 @exec_blas(i64 noundef %86, ptr noundef %87)
  store i32 0, ptr %5, align 4
  store i32 1, ptr %12, align 4
  br label %89

89:                                               ; preds = %79, %15
  call void @llvm.lifetime.end.p0(i64 4, ptr %11) #8
  call void @llvm.lifetime.end.p0(i64 2688, ptr %10) #8
  %90 = load i32, ptr %5, align 4
  ret i32 %90
}