; Function Attrs: nounwind uwtable
define noundef i32 @gotoblas_pthread(i32 noundef %0, ptr noundef %1, ptr noundef %2, i32 noundef %3) local_unnamed_addr #0 {
  %5 = alloca [16 x %struct.blas_queue], align 16
  call void @llvm.lifetime.start.p0(i64 2688, ptr nonnull %5) #10
  %6 = icmp slt i32 %0, 1
  br i1 %6, label %33, label %7

7:                                                ; preds = %4
  %8 = load i32, ptr @blas_cpu_number, align 4, !tbaa !3
  %9 = icmp eq i32 %8, 0
  br i1 %9, label %10, label %12

10:                                               ; preds = %7
  %11 = tail call i32 @blas_get_cpu_number() #10
  br label %12

12:                                               ; preds = %10, %7
  %13 = load i32, ptr @blas_server_avail, align 128, !tbaa !3
  %14 = icmp eq i32 %13, 0
  br i1 %14, label %15, label %.lr.ph

15:                                               ; preds = %12
  %16 = tail call i32 @blas_thread_init()
  br label %.lr.ph

.lr.ph:                                           ; preds = %12, %15
  %17 = sext i32 %3 to i64
  %wide.trip.count = zext nneg i32 %0 to i64
  br label %18

18:                                               ; preds = %.lr.ph, %18
  %indvars.iv = phi i64 [ 0, %.lr.ph ], [ %indvars.iv.next, %18 ]
  %.02224 = phi ptr [ %2, %.lr.ph ], [ %27, %18 ]
  %19 = getelementptr inbounds nuw [16 x %struct.blas_queue], ptr %5, i64 0, i64 %indvars.iv
  %20 = getelementptr inbounds nuw i8, ptr %19, i64 160
  store i32 16384, ptr %20, align 8, !tbaa !48
  store ptr %1, ptr %19, align 8, !tbaa !47
  %21 = getelementptr inbounds nuw i8, ptr %19, i64 24
  store ptr %.02224, ptr %21, align 8, !tbaa !49
  %22 = getelementptr inbounds nuw i8, ptr %19, i64 32
  %23 = getelementptr inbounds nuw i8, ptr %19, i64 48
  call void @llvm.memset.p0.i64(ptr noundef nonnull align 8 dereferenceable(16) %22, i8 0, i64 16, i1 false)
  store ptr %.02224, ptr %23, align 8, !tbaa !53
  %24 = getelementptr inbounds nuw i8, ptr %19, i64 56
  store ptr %.02224, ptr %24, align 8, !tbaa !50
  %indvars.iv.next = add nuw nsw i64 %indvars.iv, 1
  %25 = getelementptr inbounds nuw [16 x %struct.blas_queue], ptr %5, i64 0, i64 %indvars.iv.next
  %26 = getelementptr inbounds nuw i8, ptr %19, i64 64
  store ptr %25, ptr %26, align 8, !tbaa !39
  %27 = getelementptr inbounds i8, ptr %.02224, i64 %17
  %exitcond.not = icmp eq i64 %indvars.iv.next, %wide.trip.count
  br i1 %exitcond.not, label %._crit_edge, label %18, !llvm.loop !72

._crit_edge:                                      ; preds = %18
  %28 = add nsw i32 %0, -1
  %29 = zext nneg i32 %28 to i64
  %30 = getelementptr inbounds nuw [16 x %struct.blas_queue], ptr %5, i64 0, i64 %29, i32 8
  store ptr null, ptr %30, align 8, !tbaa !39
  %31 = zext nneg i32 %0 to i64
  %32 = call i32 @exec_blas(i64 noundef %31, ptr noundef nonnull %5)
  br label %33

33:                                               ; preds = %4, %._crit_edge
  call void @llvm.lifetime.end.p0(i64 2688, ptr nonnull %5) #10
  ret i32 0
}